(dp0
S'G'
p1
ccopy_reg
_reconstructor
p2
(cnetworkx.classes.graph
Graph
p3
c__builtin__
object
p4
Ntp5
Rp6
(dp7
S'adjlist_inner_dict_factory'
p8
c__builtin__
dict
p9
sS'node_dict_factory'
p10
g9
sS'edge_attr_dict_factory'
p11
g9
sS'_node'
p12
(dp13
I0
(dp14
S'config'
p15
(cnumpy.core.multiarray
scalar
p16
(cnumpy
dtype
p17
(S'f8'
p18
I0
I1
tp19
Rp20
(I3
S'<'
p21
NNNI-1
I-1
I0
tp22
bS'\xcaD\xfbo>\xb2\xf4?'
p23
tp24
Rp25
g16
(g20
S'\x05\xaaG\xc0\xc8\xdd!@'
p26
tp27
Rp28
g16
(g20
S'\xd0\xed\xfc\x0756\x02@'
p29
tp30
Rp31
tp32
ssI1
(dp33
g15
(g16
(g20
S"\xaa'\xaa\xfc\x7fm @"
p34
tp35
Rp36
g16
(g20
S'C\xb4\x11\x8f\x1az\xe0?'
p37
tp38
Rp39
g16
(g20
S'\xb8\xacn\xf1R)\x1a\xc0'
p40
tp41
Rp42
tp43
ssI2
(dp44
g15
(g16
(g20
S'\xbcN\xcc\xb3\x95/\x15@'
p45
tp46
Rp47
g16
(g20
S'2+\xfa\xc41\x8c\xf6?'
p48
tp49
Rp50
g16
(g20
S'\xa0\xd3I\xd5\xd63$@'
p51
tp52
Rp53
tp54
ssI3
(dp55
g15
(g16
(g20
S')\x9eL_\xd3o\x06@'
p56
tp57
Rp58
g16
(g20
S'\xb2(\x977\x9eK\x13@'
p59
tp60
Rp61
g16
(g20
S'Dm@\x8c\xd4"1@'
p62
tp63
Rp64
tp65
ssI4
(dp66
g15
(g16
(g20
S'O\xe3\xbcL\x00] @'
p67
tp68
Rp69
g16
(g20
S'\r\xcd\xcb\xb1\xb6\xa0\x00@'
p70
tp71
Rp72
g16
(g20
S'\x00\xe5\xafJ\x0f\xf86@'
p73
tp74
Rp75
tp76
ssI5
(dp77
g15
(g16
(g20
S'b\x90\x8b\xfeH)\xda?'
p78
tp79
Rp80
g16
(g20
S'\x87\x84\xd8\x9f\xedt\x07@'
p81
tp82
Rp83
g16
(g20
S'\xdec\x84s\xf2\xa1:\xc0'
p84
tp85
Rp86
tp87
ssI6
(dp88
g15
(g16
(g20
S'\x98\x83\xd3\xea?\x91\x13@'
p89
tp90
Rp91
g16
(g20
S'\xe5\xaf\xec\xffR?#@'
p92
tp93
Rp94
g16
(g20
S'\xb8\x86\xf8|HQ\x1b\xc0'
p95
tp96
Rp97
tp98
ssI7
(dp99
g15
(g16
(g20
S'\x8f\xa2\xdf?\xda\x86\x1a@'
p100
tp101
Rp102
g16
(g20
S'\xc9\xa8\x88\xb2~,\x1d@'
p103
tp104
Rp105
g16
(g20
S'\xc84^\n\xe05\x0b\xc0'
p106
tp107
Rp108
tp109
ssI8
(dp110
g15
(g16
(g20
S'|\xd0\x079Nc @'
p111
tp112
Rp113
g16
(g20
S'\xdd\xe8\xd3\xa8\xa3\x98\x14@'
p114
tp115
Rp116
g16
(g20
S'\xe8\x10\x1d\x8f\x8e\x029\xc0'
p117
tp118
Rp119
tp120
ssI9
(dp121
g15
(g16
(g20
S'\xb6\xf36\n\x8eE\x16@'
p122
tp123
Rp124
g16
(g20
S'\x88\xba3\xb4\xfd\xdb\x14@'
p125
tp126
Rp127
g16
(g20
S'\x9a\xaf\xe5\xbc\xfc?8\xc0'
p128
tp129
Rp130
tp131
ssI10
(dp132
g15
(g16
(g20
S'\xc9\x88\xfc\xd9\tZ\x1e@'
p133
tp134
Rp135
g16
(g20
S'\xb5z)*\x93\x9a$@'
p136
tp137
Rp138
g16
(g20
S'<\xe5-#\x1cT=@'
p139
tp140
Rp141
tp142
ssI11
(dp143
g15
(g16
(g20
S'B\xe7\xf1\t\xdc\xd7\x1c@'
p144
tp145
Rp146
g16
(g20
S'\xc0V\x81&\x96\xe5\xff?'
p147
tp148
Rp149
g16
(g20
S'\xa8\xec\x0e%jh\x13\xc0'
p150
tp151
Rp152
tp153
ssI12
(dp154
g15
(g16
(g20
S'\x95\x17\xc7\xd0q\x9b\xf7?'
p155
tp156
Rp157
g16
(g20
S'\xe8\x97)\x02yM"@'
p158
tp159
Rp160
g16
(g20
S'\x88\xac\xed\xd1b\x8f8@'
p161
tp162
Rp163
tp164
ssI13
(dp165
g15
(g16
(g20
S'@\xfe\xdfO\x9d\xa6\x11@'
p166
tp167
Rp168
g16
(g20
S'\xc0\xa8U\xf5&"\xad?'
p169
tp170
Rp171
g16
(g20
S'V67(M\xff0@'
p172
tp173
Rp174
tp175
ssI14
(dp176
g15
(g16
(g20
S'\xc8o\x03\xc0B\x98\xed?'
p177
tp178
Rp179
g16
(g20
S'$\x15nj\x07\x7f\xf7?'
p180
tp181
Rp182
g16
(g20
S'u\x1b\xa3`\x10\xb89\xc0'
p183
tp184
Rp185
tp186
sssS'graph'
p187
(dp188
sS'_adj'
p189
(dp190
I0
(dp191
I5
(dp192
S'weight'
p193
g16
(g20
S'\xfcZ\xd2\xaeR\x8b\x19@'
p194
tp195
Rp196
ssI6
(dp197
g193
g16
(g20
S'\xb6\xe5M\xe7S\x00\x17@'
p198
tp199
Rp200
ssI7
(dp201
g193
g16
(g20
S'hm\xccR\xed\xc3\x1d@'
p202
tp203
Rp204
ssI10
(dp205
g193
g16
(g20
S'\xde;@\xb8\x1e\xc7 @'
p206
tp207
Rp208
ssI12
(dp209
g193
g16
(g20
S'\x1e\xd0\xe9\xdaaH\x03@'
p210
tp211
Rp212
ssI14
(dp213
g193
g16
(g20
S'nA\xee>+h\x1f@'
p214
tp215
Rp216
sssI1
(dp217
I2
(dp218
g193
g16
(g20
S'\x15$^\xa8\x87o\x08@'
p219
tp220
Rp221
ssI4
(dp222
g193
g16
(g20
S'\xb8\x11}\xcdUu\x01@'
p223
tp224
Rp225
ssI7
(dp226
g193
g16
(g20
S'\xa99\x08\xacY\xe8\x1c@'
p227
tp228
Rp229
ssI8
(dp230
g193
g16
(g20
S".\xe9\xd2\xd4'E\x14@"
p231
tp232
Rp233
ssI10
(dp234
g193
g16
(g20
S'\xf7>\x91^\xd2U$@'
p235
tp236
Rp237
ssI11
(dp238
g193
g16
(g20
S')U\x96,\xa6\xba\xfe?'
p239
tp240
Rp241
ssI13
(dp242
g193
g16
(g20
S'\xec\xcb\xc3\xa4y\xa1\x0e@'
p243
tp244
Rp245
ssI14
(dp246
g193
g16
(g20
S'\x9c\xec19\xd3g\x1d@'
p247
tp248
Rp249
sssI2
(dp250
I1
g218
sI11
(dp251
g193
g16
(g20
S'9a[\xbf}\t\x00@'
p252
tp253
Rp254
ssI4
(dp255
g193
g16
(g20
S'\xae\xe4\xef\xb6\x82\xb4\x07@'
p256
tp257
Rp258
ssI13
(dp259
g193
g16
(g20
S'f\x08\x08\xf9L8\xfc?'
p260
tp261
Rp262
ssI14
(dp263
g193
g16
(g20
S'DV\xd76\xeb\xb1\x11@'
p264
tp265
Rp266
sssI3
(dp267
I9
(dp268
g193
g16
(g20
S'\x17\xe0\x86\xffLT\x06@'
p269
tp270
Rp271
ssI5
(dp272
g193
g16
(g20
S'\x8cBS\x86M\xb6\x08@'
p273
tp274
Rp275
sssI4
(dp276
I1
g222
sI2
g255
sI7
(dp277
g193
g16
(g20
S'pi\xdfn\x07\xb8\x16@'
p278
tp279
Rp280
ssI8
(dp281
g193
g16
(g20
S'`G\xf0\xa0\x82a\x0c@'
p282
tp283
Rp284
ssI10
(dp285
g193
g16
(g20
S'Jx$\x9ah5!@'
p286
tp287
Rp288
ssI11
(dp289
g193
g16
(g20
S'\xd6\x93\xdf\xe7$0\xef?'
p290
tp291
Rp292
ssI13
(dp293
g193
g16
(g20
S'\x85\x99\x9b7\xbd)\x11@'
p294
tp295
Rp296
ssI14
(dp297
g193
g16
(g20
S'\xe8\xf1\xe1\xac=!\x1d@'
p298
tp299
Rp300
sssI5
(dp301
I0
g192
sI3
g272
sI12
(dp302
g193
g16
(g20
S'F\x94\xa0t\xf8w\x1b@'
p303
tp304
Rp305
ssI13
(dp306
g193
g16
(g20
S'\x9e\xe7\xba\xdf\xcc\x84\x19@'
p307
tp308
Rp309
ssI14
(dp310
g193
g16
(g20
S'd\x126\xe4\x8c\x00\x05@'
p311
tp312
Rp313
sssI6
(dp314
I0
g197
sI8
(dp315
g193
g16
(g20
S'\xf7\xa0\xb7mxn\x1a@'
p316
tp317
Rp318
ssI10
(dp319
g193
g16
(g20
S'H\xb46Xc{\x13@'
p320
tp321
Rp322
ssI12
(dp323
g193
g16
(g20
S'\xc5\xab\xee\xea\xf0\x97\x0b@'
p324
tp325
Rp326
ssI7
(dp327
g193
g16
(g20
S'\xadw\xc6\t\xe5W\x10@'
p328
tp329
Rp330
sssI7
(dp331
I0
g201
sI1
g226
sI4
g277
sI6
g327
sI8
(dp332
g193
g16
(g20
S'\xbd<\x87>\xd4\x13\x06@'
p333
tp334
Rp335
ssI10
(dp336
g193
g16
(g20
S'\xb2\xc6\xfd\xb1Zc\x0f@'
p337
tp338
Rp339
ssI12
(dp340
g193
g16
(g20
S'\xe0\xf8\xb6\xbf\x1a\xf1\x15@'
p341
tp342
Rp343
sssI8
(dp344
I1
g230
sI4
g281
sI6
g315
sI7
g332
sI10
(dp345
g193
g16
(g20
S'-Z\xa3\x0e\x98"\x16@'
p346
tp347
Rp348
ssI11
(dp349
g193
g16
(g20
S'\xc2\xbb`\xfahr\x0c@'
p350
tp351
Rp352
sssI9
(dp353
I3
g268
ssI10
(dp354
I0
g205
sI1
g234
sI4
g285
sI6
g319
sI7
g336
sI8
g345
sI11
(dp355
g193
g16
(g20
S'4\x97\x91\xd5\x84c!@'
p356
tp357
Rp358
ssI12
(dp359
g193
g16
(g20
S'\x92\xcd=]\xd8\xe1\x18@'
p360
tp361
Rp362
sssI11
(dp363
I1
g238
sI2
g251
sI4
g289
sI8
g349
sI10
g355
sI13
(dp364
g193
g16
(g20
S'\x89`\xea\xd7\x8bo\x0b@'
p365
tp366
Rp367
ssI14
(dp368
g193
g16
(g20
S'\x18G\x83\xb6N;\x19@'
p369
tp370
Rp371
sssI12
(dp372
I0
g209
sI5
g302
sI6
g323
sI7
g340
sI10
g359
sI14
(dp373
g193
g16
(g20
S'\xc3\x8e\xfe\xe2\xea  @'
p374
tp375
Rp376
sssI13
(dp377
I1
g242
sI2
g259
sI4
g293
sI5
g306
sI11
g364
sI14
(dp378
g193
g16
(g20
S"\x8c\xc9\x00\xf2\x8b'\x0e@"
p379
tp380
Rp381
sssI14
(dp382
I0
g213
sI1
g246
sI2
g263
sI4
g297
sI5
g310
sI11
g368
sI12
g373
sI13
g378
sssS'adjlist_outer_dict_factory'
p383
g9
sbs.